(dp0
S'METTS MARK'
p1
(dp2
S'to_messages'
p3
I807
sS'deferral_payments'
p4
S'NaN'
p5
sS'expenses'
p6
I94299
sS'poi'
p7
I00
sS'deferred_income'
p8
g5
sS'email_address'
p9
S'mark.metts@enron.com'
p10
sS'long_term_incentive'
p11
g5
sS'restricted_stock_deferred'
p12
g5
sS'shared_receipt_with_poi'
p13
I702
sS'loan_advances'
p14
g5
sS'from_messages'
p15
I29
sS'other'
p16
I1740
sS'director_fees'
p17
g5
sS'bonus'
p18
I600000
sS'total_stock_value'
p19
I585062
sS'from_poi_to_this_person'
p20
I38
sS'fraction_of_messages_with_poi'
p21
F0.04665071770334928
sS'from_this_person_to_poi'
p22
I1
sS'restricted_stock'
p23
I585062
sS'salary'
p24
I365788
sS'total_payments'
p25
I1061827
sS'exercised_stock_options'
p26
g5
sS'total_asset'
p27
S'NaN'
p28
ssS'BAXTER JOHN C'
p29
(dp30
g3
g5
sg4
I1295738
sg6
I11200
sg7
I00
sg8
I-1386055
sg9
g5
sg11
I1586055
sg12
g5
sg13
g5
sg14
g5
sg15
g5
sg16
I2660303
sg17
g5
sg18
I1200000
sg19
I10623258
sg20
g5
sg21
g28
sg22
g5
sg23
I3942714
sg24
I267102
sg25
I5634343
sg26
I6680544
sg27
I18770904
ssS'ELLIOTT STEVEN'
p31
(dp32
g3
g5
sg4
g5
sg6
I78552
sg7
I00
sg8
I-400729
sg9
S'steven.elliott@enron.com'
p33
sg11
g5
sg12
g5
sg13
g5
sg14
g5
sg15
g5
sg16
I12961
sg17
g5
sg18
I350000
sg19
I6678735
sg20
g5
sg21
g28
sg22
g5
sg23
I1788391
sg24
I170941
sg25
I211725
sg26
I4890344
sg27
I12090020
ssS'CORDES WILLIAM R'
p34
(dp35
g3
I764
sg4
g5
sg6
g5
sg7
I00
sg8
g5
sg9
S'bill.cordes@enron.com'
p36
sg11
g5
sg12
g5
sg13
I58
sg14
g5
sg15
I12
sg16
g5
sg17
g5
sg18
g5
sg19
I1038185
sg20
I10
sg21
F0.01288659793814433
sg22
I0
sg23
I386335
sg24
g5
sg25
g5
sg26
I651850
sg27
g28
ssS'HANNON KEVIN P'
p37
(dp38
g3
I1045
sg4
g5
sg6
I34039
sg7
I01
sg8
I-3117011
sg9
S'kevin.hannon@enron.com'
p39
sg11
I1617011
sg12
g5
sg13
I1035
sg14
g5
sg15
I32
sg16
I11350
sg17
g5
sg18
I1500000
sg19
I6391065
sg20
I32
sg21
F0.04921077065923862
sg22
I21
sg23
I853064
sg24
I243293
sg25
I288682
sg26
I5538001
sg27
I13672359
ssS'MORDAUNT KRISTINA M'
p40
(dp41
g3
g5
sg4
g5
sg6
I35018
sg7
I00
sg8
g5
sg9
S'kristina.mordaunt@enron.com'
p42
sg11
g5
sg12
g5
sg13
g5
sg14
g5
sg15
g5
sg16
I1411
sg17
g5
sg18
I325000
sg19
I208510
sg20
g5
sg21
g28
sg22
g5
sg23
I208510
sg24
I267093
sg25
I628522
sg26
g5
sg27
g28
ssS'MEYER ROCKFORD G'
p43
(dp44
g3
I232
sg4
I1848227
sg6
g5
sg7
I00
sg8
g5
sg9
S'rockford.meyer@enron.com'
p45
sg11
g5
sg12
g5
sg13
I22
sg14
g5
sg15
I28
sg16
g5
sg17
g5
sg18
g5
sg19
I955873
sg20
I0
sg21
F0.0
sg22
I0
sg23
I462384
sg24
g5
sg25
I1848227
sg26
I493489
sg27
g28
ssS'MCMAHON JEFFREY'
p46
(dp47
g3
I2355
sg4
g5
sg6
I137108
sg7
I00
sg8
g5
sg9
S'jeffrey.mcmahon@enron.com'
p48
sg11
I694862
sg12
g5
sg13
I2228
sg14
g5
sg15
I48
sg16
I297353
sg17
g5
sg18
I2600000
sg19
I1662855
sg20
I58
sg21
F0.03495630461922597
sg22
I26
sg23
I558801
sg24
I370448
sg25
I4099771
sg26
I1104054
sg27
I5737357
ssS'HAEDICKE MARK E'
p49
(dp50
g3
I4009
sg4
I2157527
sg6
I76169
sg7
I00
sg8
I-934484
sg9
S'mark.haedicke@enron.com'
p51
sg11
I983346
sg12
I-329825
sg13
I1847
sg14
g5
sg15
I1941
sg16
I52382
sg17
g5
sg18
I1150000
sg19
I803094
sg20
I180
sg21
F0.04050420168067227
sg22
I61
sg23
I524169
sg24
I374125
sg25
I3859065
sg26
I608750
sg27
I2935969
ssS'PIPER GREGORY F'
p52
(dp53
g3
I1238
sg4
I1130036
sg6
I43057
sg7
I00
sg8
I-33333
sg9
S'greg.piper@enron.com'
p54
sg11
g5
sg12
I-409554
sg13
I742
sg14
g5
sg15
I222
sg16
I778
sg17
g5
sg18
I400000
sg19
I880290
sg20
I61
sg21
F0.07465753424657534
sg22
I48
sg23
I409554
sg24
I197091
sg25
I1737629
sg26
I880290
sg27
I2357671
ssS'HUMPHREY GENE E'
p55
(dp56
g3
I128
sg4
I2964506
sg6
I4994
sg7
I00
sg8
g5
sg9
S'gene.humphrey@enron.com'
p57
sg11
g5
sg12
g5
sg13
I119
sg14
g5
sg15
I17
sg16
g5
sg17
g5
sg18
g5
sg19
I2282768
sg20
I10
sg21
F0.18620689655172415
sg22
I17
sg23
g5
sg24
I130724
sg25
I3100224
sg26
I2282768
sg27
g28
ssS'NOLES JAMES L'
p58
(dp59
g3
g5
sg4
I774401
sg6
g5
sg7
I00
sg8
g5
sg9
g5
sg11
g5
sg12
I-94556
sg13
g5
sg14
g5
sg15
g5
sg16
g5
sg17
g5
sg18
g5
sg19
I368705
sg20
g5
sg21
g28
sg22
g5
sg23
I463261
sg24
g5
sg25
I774401
sg26
g5
sg27
g28
ssS'BLACHMAN JEREMY M'
p60
(dp61
g3
I2475
sg4
g5
sg6
I84208
sg7
I00
sg8
g5
sg9
S'jeremy.blachman@enron.com'
p62
sg11
I831809
sg12
g5
sg13
I2326
sg14
g5
sg15
I14
sg16
I272
sg17
g5
sg18
I850000
sg19
I954354
sg20
I25
sg21
F0.010847730012053034
sg22
I2
sg23
I189041
sg24
I248546
sg25
I2014835
sg26
I765313
sg27
I2818213
ssS'SUNDE MARTIN'
p63
(dp64
g3
I2647
sg4
g5
sg6
g5
sg7
I00
sg8
g5
sg9
S'marty.sunde@enron.com'
p65
sg11
I476451
sg12
g5
sg13
I2565
sg14
g5
sg15
I38
sg16
I111122
sg17
g5
sg18
I700000
sg19
I698920
sg20
I37
sg21
F0.0186219739292365
sg22
I13
sg23
I698920
sg24
I257486
sg25
I1545059
sg26
g5
sg27
g28
ssS'GIBBS DANA R'
p66
(dp67
g3
I169
sg4
I504610
sg6
g5
sg7
I00
sg8
g5
sg9
S'dana.gibbs@enron.com'
p68
sg11
I461912
sg12
g5
sg13
I23
sg14
g5
sg15
I12
sg16
g5
sg17
g5
sg18
g5
sg19
I2218275
sg20
I0
sg21
F0.0
sg22
I0
sg23
g5
sg24
g5
sg25
I966522
sg26
I2218275
sg27
g28
ssS'LOWRY CHARLES P'
p69
(dp70
g3
g5
sg4
g5
sg6
g5
sg7
I00
sg8
g5
sg9
g5
sg11
g5
sg12
I-153686
sg13
g5
sg14
g5
sg15
g5
sg16
g5
sg17
g5
sg18
g5
sg19
I372205
sg20
g5
sg21
g28
sg22
g5
sg23
I153686
sg24
g5
sg25
g5
sg26
I372205
sg27
g28
ssS'COLWELL WESLEY'
p71
(dp72
g3
I1758
sg4
I27610
sg6
I16514
sg7
I01
sg8
I-144062
sg9
S'wes.colwell@enron.com'
p73
sg11
g5
sg12
g5
sg13
I1132
sg14
g5
sg15
I40
sg16
I101740
sg17
g5
sg18
I1200000
sg19
I698242
sg20
I240
sg21
F0.13959955506117908
sg22
I11
sg23
I698242
sg24
I288542
sg25
I1490344
sg26
g5
sg27
g28
ssS'MULLER MARK S'
p74
(dp75
g3
I136
sg4
I842924
sg6
g5
sg7
I00
sg8
I-719000
sg9
S's..muller@enron.com'
p76
sg11
I1725545
sg12
g5
sg13
I114
sg14
g5
sg15
I16
sg16
I947
sg17
g5
sg18
I1100000
sg19
I1416848
sg20
I12
sg21
F0.07894736842105263
sg22
I0
sg23
I360528
sg24
I251654
sg25
I3202070
sg26
I1056320
sg27
I3824822
ssS'JACKSON CHARLENE R'
p77
(dp78
g3
I258
sg4
g5
sg6
I10181
sg7
I00
sg8
g5
sg9
S'charlene.jackson@enron.com'
p79
sg11
g5
sg12
g5
sg13
I117
sg14
g5
sg15
I56
sg16
I2435
sg17
g5
sg18
I250000
sg19
I725735
sg20
I25
sg21
F0.14012738853503184
sg22
I19
sg23
I540672
sg24
I288558
sg25
I551174
sg26
I185063
sg27
I1449356
ssS'WESTFAHL RICHARD K'
p80
(dp81
g3
g5
sg4
g5
sg6
I51870
sg7
I00
sg8
I-10800
sg9
S'dick.westfahl@enron.com'
p82
sg11
I256191
sg12
g5
sg13
g5
sg14
g5
sg15
g5
sg16
I401130
sg17
g5
sg18
g5
sg19
I384930
sg20
g5
sg21
g28
sg22
g5
sg23
I384930
sg24
I63744
sg25
I762135
sg26
g5
sg27
g28
ssS'WALTERS GARETH W'
p83
(dp84
g3
g5
sg4
I53625
sg6
I33785
sg7
I00
sg8
g5
sg9
g5
sg11
g5
sg12
g5
sg13
g5
sg14
g5
sg15
g5
sg16
g5
sg17
g5
sg18
g5
sg19
I1030329
sg20
g5
sg21
g28
sg22
g5
sg23
g5
sg24
g5
sg25
I87410
sg26
I1030329
sg27
g28
ssS'WALLS JR ROBERT H'
p85
(dp86
g3
I671
sg4
g5
sg6
I50936
sg7
I00
sg8
g5
sg9
S'rob.walls@enron.com'
p87
sg11
I540751
sg12
g5
sg13
I215
sg14
g5
sg15
I146
sg16
I2
sg17
g5
sg18
I850000
sg19
I5898997
sg20
I17
sg21
F0.0208078335373317
sg22
I0
sg23
I1552453
sg24
I357091
sg25
I1798780
sg26
I4346544
sg27
I11452632
ssS'KITCHEN LOUISE'
p88
(dp89
g3
I8305
sg4
g5
sg6
I5774
sg7
I00
sg8
g5
sg9
S'louise.kitchen@enron.com'
p90
sg11
g5
sg12
g5
sg13
I3669
sg14
g5
sg15
I1728
sg16
I93925
sg17
g5
sg18
I3100000
sg19
I547143
sg20
I251
sg21
F0.044353633011063494
sg22
I194
sg23
I466101
sg24
I271442
sg25
I3471141
sg26
I81042
sg27
I3999627
ssS'CHAN RONNIE'
p91
(dp92
g3
g5
sg4
g5
sg6
g5
sg7
I00
sg8
I-98784
sg9
g5
sg11
g5
sg12
I-32460
sg13
g5
sg14
g5
sg15
g5
sg16
g5
sg17
I98784
sg18
g5
sg19
g5
sg20
g5
sg21
g28
sg22
g5
sg23
I32460
sg24
g5
sg25
g5
sg26
g5
sg27
g28
ssS'BELFER ROBERT'
p93
(dp94
g3
g5
sg4
I-102500
sg6
g5
sg7
I00
sg8
g5
sg9
g5
sg11
g5
sg12
I44093
sg13
g5
sg14
g5
sg15
g5
sg16
g5
sg17
I3285
sg18
g5
sg19
I-44093
sg20
g5
sg21
g28
sg22
g5
sg23
g5
sg24
g5
sg25
I102500
sg26
I3285
sg27
g28
ssS'SHANKMAN JEFFREY A'
p95
(dp96
g3
I3221
sg4
g5
sg6
I178979
sg7
I00
sg8
g5
sg9
S'jeffrey.shankman@enron.com'
p97
sg11
I554422
sg12
g5
sg13
I1730
sg14
g5
sg15
I2681
sg16
I1191
sg17
g5
sg18
I2000000
sg19
I2072035
sg20
I94
sg21
F0.029989833954591663
sg22
I83
sg23
I630137
sg24
I304110
sg25
I3038702
sg26
I1441898
sg27
I5818043
ssS'WODRASKA JOHN'
p98
(dp99
g3
g5
sg4
g5
sg6
g5
sg7
I00
sg8
g5
sg9
S'john.wodraska@enron.com'
p100
sg11
g5
sg12
g5
sg13
g5
sg14
g5
sg15
g5
sg16
I189583
sg17
g5
sg18
g5
sg19
g5
sg20
g5
sg21
g28
sg22
g5
sg23
g5
sg24
g5
sg25
I189583
sg26
g5
sg27
g28
ssS'BERGSIEKER RICHARD P'
p101
(dp102
g3
I383
sg4
g5
sg6
I59175
sg7
I00
sg8
I-485813
sg9
S'rick.bergsieker@enron.com'
p103
sg11
I180250
sg12
g5
sg13
I233
sg14
g5
sg15
I59
sg16
I427316
sg17
g5
sg18
I250000
sg19
I659249
sg20
I4
sg21
F0.00904977375565611
sg22
I0
sg23
I659249
sg24
I187922
sg25
I618850
sg26
g5
sg27
g28
ssS'URQUHART JOHN A'
p104
(dp105
g3
g5
sg4
g5
sg6
I228656
sg7
I00
sg8
I-36666
sg9
g5
sg11
g5
sg12
g5
sg13
g5
sg14
g5
sg15
g5
sg16
g5
sg17
I36666
sg18
g5
sg19
g5
sg20
g5
sg21
g28
sg22
g5
sg23
g5
sg24
g5
sg25
I228656
sg26
g5
sg27
g28
ssS'BIBI PHILIPPE A'
p106
(dp107
g3
I1607
sg4
g5
sg6
I38559
sg7
I00
sg8
g5
sg9
S'philippe.bibi@enron.com'
p108
sg11
I369721
sg12
g5
sg13
I1336
sg14
g5
sg15
I40
sg16
I425688
sg17
g5
sg18
I1000000
sg19
I1843816
sg20
I23
sg21
F0.018822100789313904
sg22
I8
sg23
I378082
sg24
I213625
sg25
I2047593
sg26
I1465734
sg27
I4523175
ssS'RIEKER PAULA H'
p109
(dp110
g3
I1328
sg4
I214678
sg6
I33271
sg7
I01
sg8
I-100000
sg9
S'paula.rieker@enron.com'
p111
sg11
g5
sg12
g5
sg13
I1258
sg14
g5
sg15
I82
sg16
I1950
sg17
g5
sg18
I700000
sg19
I1918887
sg20
I35
sg21
F0.058865248226950356
sg22
I48
sg23
I283649
sg24
I249201
sg25
I1099100
sg26
I1635238
sg27
I4503326
ssS'WHALEY DAVID A'
p112
(dp113
g3
g5
sg4
g5
sg6
g5
sg7
I00
sg8
g5
sg9
g5
sg11
g5
sg12
g5
sg13
g5
sg14
g5
sg15
g5
sg16
g5
sg17
g5
sg18
g5
sg19
I98718
sg20
g5
sg21
g28
sg22
g5
sg23
g5
sg24
g5
sg25
g5
sg26
I98718
sg27
g28
ssS'BECK SALLY W'
p114
(dp115
g3
I7315
sg4
g5
sg6
I37172
sg7
I00
sg8
g5
sg9
S'sally.beck@enron.com'
p116
sg11
g5
sg12
g5
sg13
I2639
sg14
g5
sg15
I4343
sg16
I566
sg17
g5
sg18
I700000
sg19
I126027
sg20
I144
sg21
F0.0454623434551381
sg22
I386
sg23
I126027
sg24
I231330
sg25
I969068
sg26
g5
sg27
g28
ssS'HAUG DAVID L'
p117
(dp118
g3
I573
sg4
g5
sg6
I475
sg7
I00
sg8
g5
sg9
S'david.haug@enron.com'
p119
sg11
g5
sg12
g5
sg13
I471
sg14
g5
sg15
I19
sg16
g5
sg17
g5
sg18
g5
sg19
I2217299
sg20
I4
sg21
F0.018581081081081082
sg22
I7
sg23
I2217299
sg24
g5
sg25
I475
sg26
g5
sg27
g28
ssS'ECHOLS JOHN B'
p120
(dp121
g3
g5
sg4
g5
sg6
I21530
sg7
I00
sg8
g5
sg9
S'john.echols@enron.com'
p122
sg11
I2234774
sg12
g5
sg13
g5
sg14
g5
sg15
g5
sg16
I53775
sg17
g5
sg18
I200000
sg19
I1008941
sg20
g5
sg21
g28
sg22
g5
sg23
I407503
sg24
I182245
sg25
I2692324
sg26
I601438
sg27
I1992624
ssS'MENDELSOHN JOHN'
p123
(dp124
g3
g5
sg4
g5
sg6
I148
sg7
I00
sg8
I-103750
sg9
g5
sg11
g5
sg12
g5
sg13
g5
sg14
g5
sg15
g5
sg16
g5
sg17
I103750
sg18
g5
sg19
g5
sg20
g5
sg21
g28
sg22
g5
sg23
g5
sg24
g5
sg25
I148
sg26
g5
sg27
g28
ssS'HICKERSON GARY J'
p125
(dp126
g3
I1320
sg4
g5
sg6
I98849
sg7
I00
sg8
g5
sg9
S'gary.hickerson@enron.com'
p127
sg11
I69223
sg12
g5
sg13
I900
sg14
g5
sg15
I27
sg16
I1936
sg17
g5
sg18
I1700000
sg19
I441096
sg20
I40
sg21
F0.030438010393466965
sg22
I1
sg23
I441096
sg24
I211788
sg25
I2081796
sg26
g5
sg27
g28
ssS'CLINE KENNETH W'
p128
(dp129
g3
g5
sg4
g5
sg6
g5
sg7
I00
sg8
g5
sg9
g5
sg11
g5
sg12
I-472568
sg13
g5
sg14
g5
sg15
g5
sg16
g5
sg17
g5
sg18
g5
sg19
I189518
sg20
g5
sg21
g28
sg22
g5
sg23
I662086
sg24
g5
sg25
g5
sg26
g5
sg27
g28
ssS'LEWIS RICHARD'
p130
(dp131
g3
I952
sg4
g5
sg6
g5
sg7
I00
sg8
g5
sg9
S'richard.lewis@enron.com'
p132
sg11
g5
sg12
g5
sg13
I739
sg14
g5
sg15
I26
sg16
g5
sg17
g5
sg18
g5
sg19
I850477
sg20
I10
sg21
F0.010224948875255624
sg22
I0
sg23
g5
sg24
g5
sg25
g5
sg26
I850477
sg27
g28
ssS'HAYES ROBERT E'
p133
(dp134
g3
I504
sg4
I7961
sg6
g5
sg7
I00
sg8
g5
sg9
S'robert.hayes@enron.com'
p135
sg11
g5
sg12
g5
sg13
I50
sg14
g5
sg15
I12
sg16
g5
sg17
g5
sg18
g5
sg19
I151418
sg20
I16
sg21
F0.031007751937984496
sg22
I0
sg23
I151418
sg24
g5
sg25
I7961
sg26
g5
sg27
g28
ssS'KOPPER MICHAEL J'
p136
(dp137
g3
g5
sg4
g5
sg6
I118134
sg7
I01
sg8
g5
sg9
S'michael.kopper@enron.com'
p138
sg11
I602671
sg12
g5
sg13
g5
sg14
g5
sg15
g5
sg16
I907502
sg17
g5
sg18
I800000
sg19
I985032
sg20
g5
sg21
g28
sg22
g5
sg23
I985032
sg24
I224305
sg25
I2652612
sg26
g5
sg27
g28
ssS'LEFF DANIEL P'
p139
(dp140
g3
I2822
sg4
g5
sg6
g5
sg7
I00
sg8
g5
sg9
S'dan.leff@enron.com'
p141
sg11
I1387399
sg12
g5
sg13
I2672
sg14
g5
sg15
I63
sg16
I3083
sg17
g5
sg18
I1000000
sg19
I360528
sg20
I67
sg21
F0.028076256499133447
sg22
I14
sg23
I360528
sg24
I273746
sg25
I2664228
sg26
g5
sg27
g28
ssS'LAVORATO JOHN J'
p142
(dp143
g3
I7259
sg4
g5
sg6
I49537
sg7
I00
sg8
g5
sg9
S'john.lavorato@enron.com'
p144
sg11
I2035380
sg12
g5
sg13
I3962
sg14
g5
sg15
I2585
sg16
I1552
sg17
g5
sg18
I8000000
sg19
I5167144
sg20
I528
sg21
F0.09538805363673304
sg22
I411
sg23
I1008149
sg24
I339288
sg25
I10425757
sg26
I4158995
sg27
I17665427
ssS'BERBERIAN DAVID'
p145
(dp146
g3
g5
sg4
g5
sg6
I11892
sg7
I00
sg8
g5
sg9
S'david.berberian@enron.com'
p147
sg11
g5
sg12
g5
sg13
g5
sg14
g5
sg15
g5
sg16
g5
sg17
g5
sg18
g5
sg19
I2493616
sg20
g5
sg21
g28
sg22
g5
sg23
I869220
sg24
I216582
sg25
I228474
sg26
I1624396
sg27
g28
ssS'DETMERING TIMOTHY J'
p148
(dp149
g3
g5
sg4
I875307
sg6
I52255
sg7
I00
sg8
I-775241
sg9
S'timothy.detmering@enron.com'
p150
sg11
I415657
sg12
I-315068
sg13
g5
sg14
g5
sg15
g5
sg16
I1105
sg17
g5
sg18
I425000
sg19
I2027865
sg20
g5
sg21
g28
sg22
g5
sg23
I315068
sg24
I210500
sg25
I1204583
sg26
I2027865
sg27
I4691230
ssS'WAKEHAM JOHN'
p151
(dp152
g3
g5
sg4
g5
sg6
I103773
sg7
I00
sg8
g5
sg9
g5
sg11
g5
sg12
g5
sg13
g5
sg14
g5
sg15
g5
sg16
g5
sg17
I109298
sg18
g5
sg19
g5
sg20
g5
sg21
g28
sg22
g5
sg23
g5
sg24
g5
sg25
I213071
sg26
g5
sg27
g28
ssS'POWERS WILLIAM'
p153
(dp154
g3
I653
sg4
g5
sg6
g5
sg7
I00
sg8
I-17500
sg9
S'ken.powers@enron.com'
p155
sg11
g5
sg12
g5
sg13
I12
sg14
g5
sg15
I26
sg16
g5
sg17
I17500
sg18
g5
sg19
g5
sg20
I0
sg21
F0.0
sg22
I0
sg23
g5
sg24
g5
sg25
g5
sg26
g5
sg27
g28
ssS'GOLD JOSEPH'
p156
(dp157
g3
g5
sg4
g5
sg6
g5
sg7
I00
sg8
g5
sg9
S'joe.gold@enron.com'
p158
sg11
I304805
sg12
g5
sg13
g5
sg14
g5
sg15
g5
sg16
I819288
sg17
g5
sg18
I750000
sg19
I877611
sg20
g5
sg21
g28
sg22
g5
sg23
I441096
sg24
I272880
sg25
I2146973
sg26
I436515
sg27
I2337006
ssS'BANNANTINE JAMES M'
p159
(dp160
g3
I566
sg4
g5
sg6
I56301
sg7
I00
sg8
I-5104
sg9
S'james.bannantine@enron.com'
p161
sg11
g5
sg12
I-560222
sg13
I465
sg14
g5
sg15
I29
sg16
I864523
sg17
g5
sg18
g5
sg19
I5243487
sg20
I39
sg21
F0.06554621848739496
sg22
I0
sg23
I1757552
sg24
I477
sg25
I916197
sg26
I4046157
sg27
g28
ssS'DUNCAN JOHN H'
p162
(dp163
g3
g5
sg4
g5
sg6
g5
sg7
I00
sg8
I-25000
sg9
g5
sg11
g5
sg12
g5
sg13
g5
sg14
g5
sg15
g5
sg16
g5
sg17
I102492
sg18
g5
sg19
I371750
sg20
g5
sg21
g28
sg22
g5
sg23
g5
sg24
g5
sg25
I77492
sg26
I371750
sg27
g28
ssS'SHAPIRO RICHARD S'
p164
(dp165
g3
I15149
sg4
g5
sg6
I137767
sg7
I00
sg8
g5
sg9
S'richard.shapiro@enron.com'
p166
sg11
g5
sg12
g5
sg13
I4527
sg14
g5
sg15
I1215
sg16
I705
sg17
g5
sg18
I650000
sg19
I987001
sg20
I74
sg21
F0.00849425568320704
sg22
I65
sg23
I379164
sg24
I269076
sg25
I1057548
sg26
I607837
sg27
I2513914
ssS'SHERRIFF JOHN R'
p167
(dp168
g3
I3187
sg4
g5
sg6
g5
sg7
I00
sg8
g5
sg9
S'john.sherriff@enron.com'
p169
sg11
I554422
sg12
g5
sg13
I2103
sg14
g5
sg15
I92
sg16
I1852186
sg17
g5
sg18
I1500000
sg19
I3128982
sg20
I28
sg21
F0.01555352241537054
sg22
I23
sg23
I1293424
sg24
I428780
sg25
I4335388
sg26
I1835558
sg27
I6893320
ssS'SHELBY REX'
p170
(dp171
g3
I225
sg4
g5
sg6
I22884
sg7
I01
sg8
I-4167
sg9
S'rex.shelby@enron.com'
p172
sg11
g5
sg12
g5
sg13
I91
sg14
g5
sg15
I39
sg16
I1573324
sg17
g5
sg18
I200000
sg19
I2493616
sg20
I13
sg21
F0.10227272727272728
sg22
I14
sg23
I869220
sg24
I211844
sg25
I2003885
sg26
I1624396
sg27
I4529856
ssS'LEMAISTRE CHARLES'
p173
(dp174
g3
g5
sg4
g5
sg6
g5
sg7
I00
sg8
I-25000
sg9
g5
sg11
g5
sg12
g5
sg13
g5
sg14
g5
sg15
g5
sg16
g5
sg17
I112492
sg18
g5
sg19
I412878
sg20
g5
sg21
g28
sg22
g5
sg23
g5
sg24
g5
sg25
I87492
sg26
I412878
sg27
g28
ssS'DEFFNER JOSEPH M'
p175
(dp176
g3
I714
sg4
g5
sg6
I41626
sg7
I00
sg8
g5
sg9
S'joseph.deffner@enron.com'
p177
sg11
I335349
sg12
g5
sg13
I552
sg14
g5
sg15
I74
sg16
I25553
sg17
g5
sg18
I600000
sg19
I159211
sg20
I115
sg21
F0.15101522842639595
sg22
I4
sg23
I141833
sg24
I206121
sg25
I1208649
sg26
I17378
sg27
I982710
ssS'KISHKILL JOSEPH G'
p178
(dp179
g3
g5
sg4
g5
sg6
I116335
sg7
I00
sg8
I-51042
sg9
S'joe.kishkill@enron.com'
p180
sg11
g5
sg12
g5
sg13
g5
sg14
g5
sg15
g5
sg16
I465357
sg17
g5
sg18
g5
sg19
I1034346
sg20
g5
sg21
g28
sg22
g5
sg23
I1034346
sg24
I174246
sg25
I704896
sg26
g5
sg27
g28
ssS'WHALLEY LAWRENCE G'
p181
(dp182
g3
I6019
sg4
g5
sg6
I57838
sg7
I00
sg8
g5
sg9
S'greg.whalley@enron.com'
p183
sg11
I808346
sg12
g5
sg13
I3920
sg14
g5
sg15
I556
sg16
I301026
sg17
g5
sg18
I3000000
sg19
I6079137
sg20
I186
sg21
F0.03193916349809886
sg22
I24
sg23
I2796177
sg24
I510364
sg25
I4677574
sg26
I3282960
sg27
I12872461
ssS'PIRO JIM'
p184
(dp185
g3
I58
sg4
g5
sg6
g5
sg7
I00
sg8
g5
sg9
S'jim.piro@enron.com'
p186
sg11
g5
sg12
g5
sg13
I3
sg14
g5
sg15
I16
sg16
g5
sg17
g5
sg18
g5
sg19
I47304
sg20
I0
sg21
F0.013513513513513514
sg22
I1
sg23
I47304
sg24
g5
sg25
g5
sg26
g5
sg27
g28
ssS'MCCONNELL MICHAEL S'
p187
(dp188
g3
I3329
sg4
g5
sg6
I81364
sg7
I00
sg8
g5
sg9
S'mike.mcconnell@enron.com'
p189
sg11
I554422
sg12
g5
sg13
I2189
sg14
g5
sg15
I2742
sg16
I540
sg17
g5
sg18
I1100000
sg19
I3101279
sg20
I92
sg21
F0.047109207708779445
sg22
I194
sg23
I1478269
sg24
I365038
sg25
I2101364
sg26
I1623010
sg27
I6189327
ssS'DELAINEY DAVID W'
p190
(dp191
g3
I3093
sg4
g5
sg6
I86174
sg7
I01
sg8
g5
sg9
S'david.delainey@enron.com'
p192
sg11
I1294981
sg12
g5
sg13
I2097
sg14
g5
sg15
I3069
sg16
I1661
sg17
g5
sg18
I3000000
sg19
I3614261
sg20
I66
sg21
F0.10954235637779941
sg22
I609
sg23
I1323148
sg24
I365163
sg25
I4747979
sg26
I2291113
sg27
I9270537
ssS'SULLIVAN-SHAKLOVITZ COLLEEN'
p193
(dp194
g3
g5
sg4
I181993
sg6
g5
sg7
I00
sg8
g5
sg9
g5
sg11
I554422
sg12
g5
sg13
g5
sg14
g5
sg15
g5
sg16
I162
sg17
g5
sg18
I100000
sg19
I1362375
sg20
g5
sg21
g28
sg22
g5
sg23
g5
sg24
I162779
sg25
I999356
sg26
I1362375
sg27
I2987529
ssS'WROBEL BRUCE'
p195
(dp196
g3
g5
sg4
g5
sg6
g5
sg7
I00
sg8
g5
sg9
g5
sg11
g5
sg12
g5
sg13
g5
sg14
g5
sg15
g5
sg16
g5
sg17
g5
sg18
g5
sg19
I139130
sg20
g5
sg21
g28
sg22
g5
sg23
g5
sg24
g5
sg25
g5
sg26
I139130
sg27
g28
ssS'LINDHOLM TOD A'
p197
(dp198
g3
g5
sg4
I204075
sg6
I57727
sg7
I00
sg8
g5
sg9
S'tod.lindholm@enron.com'
p199
sg11
I175000
sg12
g5
sg13
g5
sg14
g5
sg15
g5
sg16
I2630
sg17
g5
sg18
I200000
sg19
I3064208
sg20
g5
sg21
g28
sg22
g5
sg23
I514847
sg24
I236457
sg25
I875889
sg26
I2549361
sg27
I6050026
ssS'MEYER JEROME J'
p200
(dp201
g3
g5
sg4
g5
sg6
I2151
sg7
I00
sg8
I-38346
sg9
g5
sg11
g5
sg12
g5
sg13
g5
sg14
g5
sg15
g5
sg16
g5
sg17
I38346
sg18
g5
sg19
g5
sg20
g5
sg21
g28
sg22
g5
sg23
g5
sg24
g5
sg25
I2151
sg26
g5
sg27
g28
ssS'LAY KENNETH L'
p202
(dp203
g3
I4273
sg4
I202911
sg6
I99832
sg7
I01
sg8
I-300000
sg9
S'kenneth.lay@enron.com'
p204
sg11
I3600000
sg12
g5
sg13
I2411
sg14
I81525000
sg15
I36
sg16
I10359729
sg17
g5
sg18
I7000000
sg19
I49110078
sg20
I123
sg21
F0.03225806451612903
sg22
I16
sg23
I14761694
sg24
I1072321
sg25
I103559793
sg26
I34348384
sg27
I91530783
ssS'BUTTS ROBERT H'
p205
(dp206
g3
g5
sg4
g5
sg6
I9410
sg7
I00
sg8
I-75000
sg9
S'bob.butts@enron.com'
p207
sg11
I175000
sg12
g5
sg13
g5
sg14
g5
sg15
g5
sg16
I150656
sg17
g5
sg18
I750000
sg19
I417619
sg20
g5
sg21
g28
sg22
g5
sg23
I417619
sg24
I261516
sg25
I1271582
sg26
g5
sg27
g28
ssS'OLSON CINDY K'
p208
(dp209
g3
I1184
sg4
I77716
sg6
I63791
sg7
I00
sg8
g5
sg9
S'cindy.olson@enron.com'
p210
sg11
I100000
sg12
g5
sg13
I856
sg14
g5
sg15
I52
sg16
I972
sg17
g5
sg18
I750000
sg19
I2606763
sg20
I20
sg21
F0.02831715210355987
sg22
I15
sg23
I969729
sg24
I329078
sg25
I1321557
sg26
I1637034
sg27
I5322875
ssS'MCDONALD REBECCA'
p211
(dp212
g3
I894
sg4
g5
sg6
g5
sg7
I00
sg8
g5
sg9
S'rebecca.mcdonald@enron.com'
p213
sg11
g5
sg12
g5
sg13
I720
sg14
g5
sg15
I13
sg16
g5
sg17
g5
sg18
g5
sg19
I1691366
sg20
I54
sg21
F0.06063947078280044
sg22
I1
sg23
I934065
sg24
g5
sg25
g5
sg26
I757301
sg27
g28
ssS'CUMBERLAND MICHAEL S'
p214
(dp215
g3
g5
sg4
g5
sg6
I22344
sg7
I00
sg8
g5
sg9
g5
sg11
I275000
sg12
g5
sg13
g5
sg14
g5
sg15
g5
sg16
I713
sg17
g5
sg18
I325000
sg19
I207940
sg20
g5
sg21
g28
sg22
g5
sg23
I207940
sg24
I184899
sg25
I807956
sg26
g5
sg27
g28
ssS'GAHN ROBERT S'
p216
(dp217
g3
g5
sg4
I73122
sg6
I50080
sg7
I00
sg8
I-1042
sg9
g5
sg11
g5
sg12
g5
sg13
g5
sg14
g5
sg15
g5
sg16
I76547
sg17
g5
sg18
I509870
sg19
I318607
sg20
g5
sg21
g28
sg22
g5
sg23
I235370
sg24
I192008
sg25
I900585
sg26
I83237
sg27
I1103722
ssS'BADUM JAMES P'
p218
(dp219
g3
g5
sg4
I178980
sg6
I3486
sg7
I00
sg8
g5
sg9
g5
sg11
g5
sg12
g5
sg13
g5
sg14
g5
sg15
g5
sg16
g5
sg17
g5
sg18
g5
sg19
I257817
sg20
g5
sg21
g28
sg22
g5
sg23
g5
sg24
g5
sg25
I182466
sg26
I257817
sg27
g28
ssS'HERMANN ROBERT J'
p220
(dp221
g3
g5
sg4
g5
sg6
I48357
sg7
I00
sg8
I-280000
sg9
S'robert.hermann@enron.com'
p222
sg11
I150000
sg12
g5
sg13
g5
sg14
g5
sg15
g5
sg16
I416441
sg17
g5
sg18
I700000
sg19
I668132
sg20
g5
sg21
g28
sg22
g5
sg23
I480632
sg24
I262663
sg25
I1297461
sg26
I187500
sg27
I1818295
ssS'FALLON JAMES B'
p223
(dp224
g3
I1755
sg4
g5
sg6
I95924
sg7
I00
sg8
g5
sg9
S'jim.fallon@enron.com'
p225
sg11
I374347
sg12
g5
sg13
I1604
sg14
g5
sg15
I75
sg16
I401481
sg17
g5
sg18
I2500000
sg19
I2332399
sg20
I42
sg21
F0.04316939890710383
sg22
I37
sg23
I1392142
sg24
I304588
sg25
I3676340
sg26
I940257
sg27
I6077244
ssS'GATHMANN WILLIAM D'
p226
(dp227
g3
g5
sg4
g5
sg6
g5
sg7
I00
sg8
g5
sg9
g5
sg11
g5
sg12
I-72419
sg13
g5
sg14
g5
sg15
g5
sg16
g5
sg17
g5
sg18
g5
sg19
I1945360
sg20
g5
sg21
g28
sg22
g5
sg23
I264013
sg24
g5
sg25
g5
sg26
I1753766
sg27
g28
ssS'HORTON STANLEY C'
p228
(dp229
g3
I2350
sg4
I3131860
sg6
g5
sg7
I00
sg8
g5
sg9
S'stanley.horton@enron.com'
p230
sg11
g5
sg12
g5
sg13
I1074
sg14
g5
sg15
I1073
sg16
g5
sg17
g5
sg18
g5
sg19
I7256648
sg20
I44
sg21
F0.017236342389716622
sg22
I15
sg23
I2046079
sg24
g5
sg25
I3131860
sg26
I5210569
sg27
g28
ssS'BOWEN JR RAYMOND M'
p231
(dp232
g3
I1858
sg4
g5
sg6
I65907
sg7
I01
sg8
I-833
sg9
S'raymond.bowen@enron.com'
p233
sg11
I974293
sg12
g5
sg13
I1593
sg14
g5
sg15
I27
sg16
I1621
sg17
g5
sg18
I1350000
sg19
I252055
sg20
I140
sg21
F0.08222811671087533
sg22
I15
sg23
I252055
sg24
I278601
sg25
I2669589
sg26
g5
sg27
g28
ssS'GILLIS JOHN'
p234
(dp235
g3
g5
sg4
g5
sg6
g5
sg7
I00
sg8
g5
sg9
g5
sg11
g5
sg12
g5
sg13
g5
sg14
g5
sg15
g5
sg16
g5
sg17
g5
sg18
g5
sg19
I85641
sg20
g5
sg21
g28
sg22
g5
sg23
I75838
sg24
g5
sg25
g5
sg26
I9803
sg27
g28
ssS'FITZGERALD JAY L'
p236
(dp237
g3
I936
sg4
g5
sg6
I23870
sg7
I00
sg8
g5
sg9
S'jay.fitzgerald@enron.com'
p238
sg11
I556416
sg12
g5
sg13
I723
sg14
g5
sg15
I16
sg16
I285414
sg17
g5
sg18
I350000
sg19
I1621236
sg20
I1
sg21
F0.009453781512605041
sg22
I8
sg23
I956775
sg24
I199157
sg25
I1414857
sg26
I664461
sg27
I2834854
ssS'MORAN MICHAEL P'
p239
(dp240
g3
I672
sg4
g5
sg6
g5
sg7
I00
sg8
g5
sg9
S'michael.moran@enron.com'
p241
sg11
g5
sg12
g5
sg13
I127
sg14
g5
sg15
I19
sg16
g5
sg17
g5
sg18
g5
sg19
I221141
sg20
I0
sg21
F0.0
sg22
I0
sg23
I161602
sg24
g5
sg25
g5
sg26
I59539
sg27
g28
ssS'REDMOND BRIAN L'
p242
(dp243
g3
I1671
sg4
g5
sg6
I14689
sg7
I00
sg8
g5
sg9
S'brian.redmond@enron.com'
p244
sg11
g5
sg12
g5
sg13
I1063
sg14
g5
sg15
I221
sg16
g5
sg17
g5
sg18
g5
sg19
I7890324
sg20
I204
sg21
F0.13372093023255813
sg22
I49
sg23
I381285
sg24
I96840
sg25
I111529
sg26
I7509039
sg27
g28
ssS'BAZELIDES PHILIP J'
p245
(dp246
g3
g5
sg4
I684694
sg6
g5
sg7
I00
sg8
g5
sg9
g5
sg11
I93750
sg12
g5
sg13
g5
sg14
g5
sg15
g5
sg16
I874
sg17
g5
sg18
g5
sg19
I1599641
sg20
g5
sg21
g28
sg22
g5
sg23
g5
sg24
I80818
sg25
I860136
sg26
I1599641
sg27
g28
ssS'BELDEN TIMOTHY N'
p247
(dp248
g3
I7991
sg4
I2144013
sg6
I17355
sg7
I01
sg8
I-2334434
sg9
S'tim.belden@enron.com'
p249
sg11
g5
sg12
g5
sg13
I5521
sg14
g5
sg15
I484
sg16
I210698
sg17
g5
sg18
I5249999
sg19
I1110705
sg20
I228
sg21
F0.03964601769911504
sg22
I108
sg23
I157569
sg24
I213999
sg25
I5501630
sg26
I953136
sg27
I7527839
ssS'DIMICHELE RICHARD G'
p250
(dp251
g3
g5
sg4
g5
sg6
I35812
sg7
I00
sg8
g5
sg9
S'richard.dimichele@enron.com'
p252
sg11
I694862
sg12
g5
sg13
g5
sg14
g5
sg15
g5
sg16
I374689
sg17
g5
sg18
I1000000
sg19
I8317782
sg20
g5
sg21
g28
sg22
g5
sg23
I126027
sg24
I262788
sg25
I2368151
sg26
I8191755
sg27
I17772325
ssS'DURAN WILLIAM D'
p253
(dp254
g3
I904
sg4
g5
sg6
I25785
sg7
I00
sg8
g5
sg9
S'w.duran@enron.com'
p255
sg11
I1105218
sg12
g5
sg13
I599
sg14
g5
sg15
I12
sg16
I1568
sg17
g5
sg18
I750000
sg19
I1640910
sg20
I106
sg21
F0.11899563318777293
sg22
I3
sg23
I189041
sg24
I210692
sg25
I2093263
sg26
I1451869
sg27
I4053471
ssS'THORN TERENCE H'
p256
(dp257
g3
I266
sg4
I16586
sg6
I46145
sg7
I00
sg8
g5
sg9
S'terence.thorn@enron.com'
p258
sg11
I200000
sg12
g5
sg13
I73
sg14
g5
sg15
I41
sg16
I426629
sg17
g5
sg18
g5
sg19
I4817796
sg20
I0
sg21
F0.0
sg22
I0
sg23
I365320
sg24
I222093
sg25
I911453
sg26
I4452476
sg27
g28
ssS'FASTOW ANDREW S'
p259
(dp260
g3
g5
sg4
g5
sg6
I55921
sg7
I01
sg8
I-1386055
sg9
S'andrew.fastow@enron.com'
p261
sg11
I1736055
sg12
g5
sg13
g5
sg14
g5
sg15
g5
sg16
I277464
sg17
g5
sg18
I1300000
sg19
I1794412
sg20
g5
sg21
g28
sg22
g5
sg23
I1794412
sg24
I440698
sg25
I2424083
sg26
g5
sg27
g28
ssS'FOY JOE'
p262
(dp263
g3
I57
sg4
I181755
sg6
g5
sg7
I00
sg8
g5
sg9
S'tracy.foy@enron.com'
p264
sg11
g5
sg12
g5
sg13
I2
sg14
g5
sg15
I13
sg16
g5
sg17
g5
sg18
g5
sg19
I343434
sg20
I0
sg21
F0.0
sg22
I0
sg23
g5
sg24
g5
sg25
I181755
sg26
I343434
sg27
g28
ssS'CALGER CHRISTOPHER F'
p265
(dp266
g3
I2598
sg4
g5
sg6
I35818
sg7
I01
sg8
I-262500
sg9
S'christopher.calger@enron.com'
p267
sg11
I375304
sg12
g5
sg13
I2188
sg14
g5
sg15
I144
sg16
I486
sg17
g5
sg18
I1250000
sg19
I126027
sg20
I199
sg21
F0.08169219547775347
sg22
I25
sg23
I126027
sg24
I240189
sg25
I1639297
sg26
g5
sg27
g28
ssS'RICE KENNETH D'
p268
(dp269
g3
I905
sg4
g5
sg6
I46950
sg7
I01
sg8
I-3504386
sg9
S'ken.rice@enron.com'
p270
sg11
I1617011
sg12
g5
sg13
I864
sg14
g5
sg15
I18
sg16
I174839
sg17
g5
sg18
I1750000
sg19
I22542539
sg20
I42
sg21
F0.04983748645720477
sg22
I4
sg23
I2748364
sg24
I420636
sg25
I505050
sg26
I19794175
sg27
I44507350
ssS'KAMINSKI WINCENTY J'
p271
(dp272
g3
I4607
sg4
g5
sg6
I83585
sg7
I00
sg8
g5
sg9
S'vince.kaminski@enron.com'
p273
sg11
I323466
sg12
g5
sg13
I583
sg14
g5
sg15
I14368
sg16
I4669
sg17
g5
sg18
I400000
sg19
I976037
sg20
I41
sg21
F0.011172595520421607
sg22
I171
sg23
I126027
sg24
I275101
sg25
I1086821
sg26
I850010
sg27
I2501148
ssS'COX DAVID'
p274
(dp275
g3
I102
sg4
g5
sg6
I27861
sg7
I00
sg8
I-41250
sg9
S'chip.cox@enron.com'
p276
sg11
g5
sg12
g5
sg13
I71
sg14
g5
sg15
I33
sg16
I494
sg17
g5
sg18
I800000
sg19
I495633
sg20
I0
sg21
F0.02962962962962963
sg22
I4
sg23
I378082
sg24
I314288
sg25
I1101393
sg26
I117551
sg27
I1727472
ssS'OVERDYKE JR JERE C'
p277
(dp278
g3
g5
sg4
g5
sg6
I18834
sg7
I00
sg8
g5
sg9
S'jere.overdyke@enron.com'
p279
sg11
I135836
sg12
g5
sg13
g5
sg14
g5
sg15
g5
sg16
I176
sg17
g5
sg18
g5
sg19
I7307594
sg20
g5
sg21
g28
sg22
g5
sg23
I2041016
sg24
I94941
sg25
I249787
sg26
I5266578
sg27
g28
ssS'PEREIRA PAULO V. FERRAZ'
p280
(dp281
g3
g5
sg4
g5
sg6
I27942
sg7
I00
sg8
I-101250
sg9
g5
sg11
g5
sg12
g5
sg13
g5
sg14
g5
sg15
g5
sg16
g5
sg17
I101250
sg18
g5
sg19
g5
sg20
g5
sg21
g28
sg22
g5
sg23
g5
sg24
g5
sg25
I27942
sg26
g5
sg27
g28
ssS'STABLER FRANK'
p282
(dp283
g3
g5
sg4
g5
sg6
I16514
sg7
I00
sg8
g5
sg9
S'frank.stabler@enron.com'
p284
sg11
g5
sg12
g5
sg13
g5
sg14
g5
sg15
g5
sg16
I356071
sg17
g5
sg18
I500000
sg19
I511734
sg20
g5
sg21
g28
sg22
g5
sg23
I511734
sg24
I239502
sg25
I1112087
sg26
g5
sg27
g28
ssS'SKILLING JEFFREY K'
p285
(dp286
g3
I3627
sg4
g5
sg6
I29336
sg7
I01
sg8
g5
sg9
S'jeff.skilling@enron.com'
p287
sg11
I1920000
sg12
g5
sg13
I2042
sg14
g5
sg15
I108
sg16
I22122
sg17
g5
sg18
I5600000
sg19
I26093672
sg20
I88
sg21
F0.03159303882195449
sg22
I30
sg23
I6843672
sg24
I1111258
sg25
I8682716
sg26
I19250000
sg27
I52054930
ssS'BLAKE JR. NORMAN P'
p288
(dp289
g3
g5
sg4
g5
sg6
I1279
sg7
I00
sg8
I-113784
sg9
g5
sg11
g5
sg12
g5
sg13
g5
sg14
g5
sg15
g5
sg16
g5
sg17
I113784
sg18
g5
sg19
g5
sg20
g5
sg21
g28
sg22
g5
sg23
g5
sg24
g5
sg25
I1279
sg26
g5
sg27
g28
ssS'SHERRICK JEFFREY B'
p290
(dp291
g3
I613
sg4
g5
sg6
g5
sg7
I00
sg8
g5
sg9
S'jeffrey.sherrick@enron.com'
p292
sg11
g5
sg12
g5
sg13
I583
sg14
g5
sg15
I25
sg16
g5
sg17
g5
sg18
g5
sg19
I1832468
sg20
I39
sg21
F0.08934169278996865
sg22
I18
sg23
I405999
sg24
g5
sg25
g5
sg26
I1426469
sg27
g28
ssS'PRENTICE JAMES'
p293
(dp294
g3
g5
sg4
I564348
sg6
g5
sg7
I00
sg8
g5
sg9
S'james.prentice@enron.com'
p295
sg11
g5
sg12
g5
sg13
g5
sg14
g5
sg15
g5
sg16
g5
sg17
g5
sg18
g5
sg19
I1095040
sg20
g5
sg21
g28
sg22
g5
sg23
I208809
sg24
g5
sg25
I564348
sg26
I886231
sg27
g28
ssS'GRAY RODNEY'
p296
(dp297
g3
g5
sg4
I93585
sg6
g5
sg7
I00
sg8
g5
sg9
g5
sg11
I365625
sg12
g5
sg13
g5
sg14
g5
sg15
g5
sg16
I680833
sg17
g5
sg18
g5
sg19
g5
sg20
g5
sg21
g28
sg22
g5
sg23
g5
sg24
I6615
sg25
I1146658
sg26
g5
sg27
g28
ssS'UMANOFF ADAM S'
p298
(dp299
g3
I111
sg4
g5
sg6
I53122
sg7
I00
sg8
g5
sg9
S'adam.umanoff@enron.com'
p300
sg11
g5
sg12
g5
sg13
I41
sg14
g5
sg15
I18
sg16
g5
sg17
g5
sg18
I788750
sg19
g5
sg20
I12
sg21
F0.09302325581395349
sg22
I0
sg23
g5
sg24
I288589
sg25
I1130461
sg26
g5
sg27
g28
ssS'KEAN STEVEN J'
p301
(dp302
g3
I12754
sg4
g5
sg6
I41953
sg7
I00
sg8
g5
sg9
S'steven.kean@enron.com'
p303
sg11
I300000
sg12
g5
sg13
I3639
sg14
g5
sg15
I6759
sg16
I1231
sg17
g5
sg18
I1000000
sg19
I6153642
sg20
I140
sg21
F0.02700763593501768
sg22
I387
sg23
I4131594
sg24
I404338
sg25
I1747522
sg26
I2022048
sg27
I9580028
ssS'FOWLER PEGGY'
p304
(dp305
g3
I517
sg4
g5
sg6
g5
sg7
I00
sg8
g5
sg9
S'kulvinder.fowler@enron.com'
p306
sg11
g5
sg12
g5
sg13
I10
sg14
g5
sg15
I36
sg16
g5
sg17
g5
sg18
g5
sg19
I1884748
sg20
I0
sg21
F0.0
sg22
I0
sg23
I560170
sg24
g5
sg25
g5
sg26
I1324578
sg27
g28
ssS'WASAFF GEORGE'
p307
(dp308
g3
I400
sg4
I831299
sg6
g5
sg7
I00
sg8
I-583325
sg9
S'george.wasaff@enron.com'
p309
sg11
I200000
sg12
g5
sg13
I337
sg14
g5
sg15
I30
sg16
I1425
sg17
g5
sg18
I325000
sg19
I2056427
sg20
I22
sg21
F0.06744186046511629
sg22
I7
sg23
I388167
sg24
I259996
sg25
I1034395
sg26
I1668260
sg27
I4309683
ssS'WHITE JR THOMAS E'
p310
(dp311
g3
g5
sg4
g5
sg6
I81353
sg7
I00
sg8
g5
sg9
S'thomas.white@enron.com'
p312
sg11
g5
sg12
g5
sg13
g5
sg14
g5
sg15
g5
sg16
I1085463
sg17
g5
sg18
I450000
sg19
I15144123
sg20
g5
sg21
g28
sg22
g5
sg23
I13847074
sg24
I317543
sg25
I1934359
sg26
I1297049
sg27
I17208715
ssS'CHRISTODOULOU DIOMEDES'
p313
(dp314
g3
g5
sg4
g5
sg6
g5
sg7
I00
sg8
g5
sg9
S'diomedes.christodoulou@enron.com'
p315
sg11
g5
sg12
g5
sg13
g5
sg14
g5
sg15
g5
sg16
g5
sg17
g5
sg18
g5
sg19
I6077885
sg20
g5
sg21
g28
sg22
g5
sg23
I950730
sg24
g5
sg25
g5
sg26
I5127155
sg27
g28
ssS'ALLEN PHILLIP K'
p316
(dp317
g3
I2902
sg4
I2869717
sg6
I13868
sg7
I00
sg8
I-3081055
sg9
S'phillip.allen@enron.com'
p318
sg11
I304805
sg12
I-126027
sg13
I1407
sg14
g5
sg15
I2195
sg16
I152
sg17
g5
sg18
I4175000
sg19
I1729541
sg20
I47
sg21
F0.0219737100255052
sg22
I65
sg23
I126027
sg24
I201955
sg25
I4484442
sg26
I1729541
sg27
I7836037
ssS'SHARP VICTORIA T'
p319
(dp320
g3
I3136
sg4
I187469
sg6
I116337
sg7
I00
sg8
g5
sg9
S'vicki.sharp@enron.com'
p321
sg11
I422158
sg12
g5
sg13
I2477
sg14
g5
sg15
I136
sg16
I2401
sg17
g5
sg18
I600000
sg19
I494136
sg20
I24
sg21
F0.009168704156479218
sg22
I6
sg23
I213063
sg24
I248146
sg25
I1576511
sg26
I281073
sg27
I1623355
ssS'JAEDICKE ROBERT'
p322
(dp323
g3
g5
sg4
g5
sg6
g5
sg7
I00
sg8
I-25000
sg9
g5
sg11
g5
sg12
I-44093
sg13
g5
sg14
g5
sg15
g5
sg16
g5
sg17
I108750
sg18
g5
sg19
I431750
sg20
g5
sg21
g28
sg22
g5
sg23
I44093
sg24
g5
sg25
I83750
sg26
I431750
sg27
g28
ssS'WINOKUR JR. HERBERT S'
p324
(dp325
g3
g5
sg4
g5
sg6
I1413
sg7
I00
sg8
I-25000
sg9
g5
sg11
g5
sg12
g5
sg13
g5
sg14
g5
sg15
g5
sg16
g5
sg17
I108579
sg18
g5
sg19
g5
sg20
g5
sg21
g28
sg22
g5
sg23
g5
sg24
g5
sg25
I84992
sg26
g5
sg27
g28
ssS'BROWN MICHAEL'
p326
(dp327
g3
I1486
sg4
g5
sg6
I49288
sg7
I00
sg8
g5
sg9
S'michael.brown@enron.com'
p328
sg11
g5
sg12
g5
sg13
I761
sg14
g5
sg15
I41
sg16
g5
sg17
g5
sg18
g5
sg19
g5
sg20
I13
sg21
F0.0091683038637852
sg22
I1
sg23
g5
sg24
g5
sg25
I49288
sg26
g5
sg27
g28
ssS'MCCLELLAN GEORGE'
p329
(dp330
g3
I1744
sg4
g5
sg6
I228763
sg7
I00
sg8
I-125000
sg9
S'george.mcclellan@enron.com'
p331
sg11
g5
sg12
g5
sg13
I1469
sg14
g5
sg15
I49
sg16
I51587
sg17
g5
sg18
I900000
sg19
I947861
sg20
I52
sg21
F0.029001673173452314
sg22
I0
sg23
I441096
sg24
I263413
sg25
I1318763
sg26
I506765
sg27
I2618039
ssS'HUGHES JAMES A'
p332
(dp333
g3
I719
sg4
g5
sg6
g5
sg7
I00
sg8
g5
sg9
S'james.hughes@enron.com'
p334
sg11
g5
sg12
g5
sg13
I589
sg14
g5
sg15
I34
sg16
g5
sg17
g5
sg18
g5
sg19
I1118394
sg20
I35
sg21
F0.05312084993359894
sg22
I5
sg23
I363428
sg24
g5
sg25
g5
sg26
I754966
sg27
g28
ssS'REYNOLDS LAWRENCE'
p335
(dp336
g3
g5
sg4
I51365
sg6
I8409
sg7
I00
sg8
I-200000
sg9
g5
sg11
I156250
sg12
I-140264
sg13
g5
sg14
g5
sg15
g5
sg16
I202052
sg17
g5
sg18
I100000
sg19
I4221891
sg20
g5
sg21
g28
sg22
g5
sg23
I201483
sg24
I76399
sg25
I394475
sg26
I4160672
sg27
I8558962
ssS'PICKERING MARK R'
p337
(dp338
g3
I898
sg4
g5
sg6
I31653
sg7
I00
sg8
g5
sg9
S'mark.pickering@enron.com'
p339
sg11
g5
sg12
g5
sg13
I728
sg14
I400000
sg15
I67
sg16
g5
sg17
g5
sg18
I300000
sg19
I28798
sg20
I7
sg21
F0.007253886010362694
sg22
I0
sg23
g5
sg24
I655037
sg25
I1386690
sg26
I28798
sg27
I1012633
ssS'BHATNAGAR SANJAY'
p340
(dp341
g3
I523
sg4
g5
sg6
g5
sg7
I00
sg8
g5
sg9
S'sanjay.bhatnagar@enron.com'
p342
sg11
g5
sg12
I15456290
sg13
I463
sg14
g5
sg15
I29
sg16
I137864
sg17
I137864
sg18
g5
sS'total_stock_value'
p343
S'NaN'
p344
sg20
I0
sg21
F0.0018115942028985507
sg22
I1
sg23
I-2604490
sg24
g5
sg25
I15456290
sg26
I2604490
sg27
g28
ssS'CARTER REBECCA C'
p345
(dp346
g3
I312
sg4
g5
sg6
g5
sg7
I00
sg8
I-159792
sg9
S'rebecca.carter@enron.com'
p347
sg11
I75000
sg12
I-307301
sg13
I196
sg14
g5
sg15
I15
sg16
I540
sg17
g5
sg18
I300000
sg19
g5
sg20
I29
sg21
F0.11009174311926606
sg22
I7
sg23
I307301
sg24
I261809
sg25
I477557
sg26
g5
sg27
g28
ssS'BUCHANAN HAROLD G'
p348
(dp349
g3
I1088
sg4
g5
sg6
I600
sg7
I00
sg8
g5
sg9
S'john.buchanan@enron.com'
p350
sg11
I304805
sg12
g5
sg13
I23
sg14
g5
sg15
I125
sg16
I1215
sg17
g5
sg18
I500000
sg19
I1014505
sg20
I0
sg21
F0.0
sg22
I0
sg23
I189041
sg24
I248017
sg25
I1054637
sg26
I825464
sg27
I2587986
ssS'YEAP SOON'
p351
(dp352
g3
g5
sg4
g5
sg6
I55097
sg7
I00
sg8
g5
sg9
g5
sg11
g5
sg12
g5
sg13
g5
sg14
g5
sg15
g5
sg16
g5
sg17
g5
sg18
g5
sg19
I192758
sg20
g5
sg21
g28
sg22
g5
sg23
g5
sg24
g5
sg25
I55097
sg26
I192758
sg27
g28
ssS'MURRAY JULIA H'
p353
(dp354
g3
I2192
sg4
g5
sg6
I57580
sg7
I00
sg8
g5
sg9
S'julia.murray@enron.com'
p355
sg11
I125000
sg12
g5
sg13
I395
sg14
g5
sg15
I45
sg16
I330
sg17
g5
sg18
I400000
sg19
I597461
sg20
I11
sg21
F0.00581135449262405
sg22
I2
sg23
I196983
sg24
I229284
sg25
I812194
sg26
I400478
sg27
I1627223
ssS'GARLAND C KEVIN'
p356
(dp357
g3
I209
sg4
g5
sg6
I48405
sg7
I00
sg8
g5
sg9
S'kevin.garland@enron.com'
p358
sg11
I375304
sg12
g5
sg13
I178
sg14
g5
sg15
I44
sg16
I60814
sg17
g5
sg18
I850000
sg19
I896153
sg20
I10
sg21
F0.14624505928853754
sg22
I27
sg23
I259907
sg24
I231946
sg25
I1566469
sg26
I636246
sg27
I2614345
ssS'DODSON KEITH'
p359
(dp360
g3
I176
sg4
g5
sg6
I28164
sg7
I00
sg8
g5
sg9
S'keith.dodson@enron.com'
p361
sg11
g5
sg12
g5
sg13
I114
sg14
g5
sg15
I14
sg16
I774
sg17
g5
sg18
I70000
sg19
g5
sg20
I10
sg21
F0.06842105263157895
sg22
I3
sg23
g5
sg24
I221003
sg25
I319941
sg26
g5
sg27
g28
ssS'YEAGER F SCOTT'
p362
(dp363
g3
g5
sg4
g5
sg6
I53947
sg7
I01
sg8
g5
sg9
S'scott.yeager@enron.com'
p364
sg11
g5
sg12
g5
sg13
g5
sg14
g5
sg15
g5
sg16
I147950
sg17
g5
sg18
g5
sg19
I11884758
sg20
g5
sg21
g28
sg22
g5
sg23
I3576206
sg24
I158403
sg25
I360300
sg26
I8308552
sg27
g28
ssS'HIRKO JOSEPH'
p365
(dp366
g3
g5
sg4
I10259
sg6
I77978
sg7
I01
sg8
g5
sg9
S'joe.hirko@enron.com'
p367
sg11
g5
sg12
g5
sg13
g5
sg14
g5
sg15
g5
sg16
I2856
sg17
g5
sg18
g5
sg19
I30766064
sg20
g5
sg21
g28
sg22
g5
sg23
g5
sg24
g5
sg25
I91093
sg26
I30766064
sg27
g28
ssS'DIETRICH JANET R'
p368
(dp369
g3
I2572
sg4
g5
sg6
I3475
sg7
I00
sg8
g5
sg9
S'janet.dietrich@enron.com'
p370
sg11
I556416
sg12
g5
sg13
I1902
sg14
g5
sg15
I63
sg16
I473
sg17
g5
sg18
I600000
sg19
I1865087
sg20
I305
sg21
F0.12106261859582543
sg22
I14
sg23
I315068
sg24
I250100
sg25
I1410464
sg26
I1550019
sg27
I4265206
ssS'DERRICK JR. JAMES V'
p371
(dp372
g3
I2181
sg4
g5
sg6
I51124
sg7
I00
sg8
I-1284000
sg9
S'james.derrick@enron.com'
p373
sg11
I484000
sg12
I-1787380
sg13
I1401
sg14
g5
sg15
I909
sg16
I7482
sg17
g5
sg18
I800000
sg19
I8831913
sg20
I64
sg21
F0.027184466019417475
sg22
I20
sg23
I1787380
sg24
I492375
sg25
I550981
sg26
I8831913
sg27
I18956201
ssS'FREVERT MARK A'
p374
(dp375
g3
I3275
sg4
I6426990
sg6
I86987
sg7
I00
sg8
I-3367011
sg9
S'mark.frevert@enron.com'
p376
sg11
I1617011
sg12
g5
sg13
I2979
sg14
I2000000
sg15
I21
sg16
I7427621
sg17
g5
sg18
I2000000
sg19
I14622185
sg20
I242
sg21
F0.07524271844660194
sg22
I6
sg23
I4188667
sg24
I1060932
sg25
I17252530
sg26
I10433518
sg27
I28116635
ssS'PAI LOU L'
p377
(dp378
g3
g5
sg4
g5
sg6
I32047
sg7
I00
sg8
g5
sg9
S'lou.pai@enron.com'
p379
sg11
g5
sg12
g5
sg13
g5
sg14
g5
sg15
g5
sg16
I1829457
sg17
g5
sg18
I1000000
sg19
I23817930
sg20
g5
sg21
g28
sg22
g5
sg23
I8453763
sg24
I261879
sg25
I3123383
sg26
I15364167
sg27
I40443976
ssS'HAYSLETT RODERICK J'
p380
(dp381
g3
I2649
sg4
g5
sg6
g5
sg7
I00
sg8
g5
sg9
S'rod.hayslett@enron.com'
p382
sg11
g5
sg12
g5
sg13
I571
sg14
g5
sg15
I1061
sg16
g5
sg17
g5
sg18
g5
sg19
I346663
sg20
I35
sg21
F0.019676549865229112
sg22
I38
sg23
I346663
sg24
g5
sg25
g5
sg26
g5
sg27
g28
ssS'BAY FRANKLIN R'
p383
(dp384
g3
g5
sg4
I260455
sg6
I129142
sg7
I00
sg8
I-201641
sg9
S'frank.bay@enron.com'
p385
sg11
g5
sg12
I-82782
sg13
g5
sg14
g5
sg15
g5
sg16
I69
sg17
g5
sg18
I400000
sg19
I63014
sg20
g5
sg21
g28
sg22
g5
sg23
I145796
sg24
I239671
sg25
I827696
sg26
g5
sg27
g28
ssS'MCCARTY DANNY J'
p386
(dp387
g3
I1433
sg4
g5
sg6
g5
sg7
I00
sg8
g5
sg9
S'danny.mccarty@enron.com'
p388
sg11
g5
sg12
g5
sg13
I508
sg14
g5
sg15
I215
sg16
g5
sg17
g5
sg18
g5
sg19
I758931
sg20
I25
sg21
F0.016383495145631068
sg22
I2
sg23
I94556
sg24
g5
sg25
g5
sg26
I664375
sg27
g28
ssS'FUGH JOHN L'
p389
(dp390
g3
g5
sg4
I50591
sg6
g5
sg7
I00
sg8
g5
sg9
g5
sg11
g5
sg12
g5
sg13
g5
sg14
g5
sg15
g5
sg16
g5
sg17
g5
sg18
g5
sg19
I176378
sg20
g5
sg21
g28
sg22
g5
sg23
g5
sg24
g5
sg25
I50591
sg26
I176378
sg27
g28
ssS'SCRIMSHAW MATTHEW'
p391
(dp392
g3
g5
sg4
g5
sg6
g5
sg7
I00
sg8
g5
sg9
S'matthew.scrimshaw@enron.com'
p393
sg11
g5
sg12
g5
sg13
g5
sg14
g5
sg15
g5
sg16
g5
sg17
g5
sg18
g5
sg19
I759557
sg20
g5
sg21
g28
sg22
g5
sg23
g5
sg24
g5
sg25
g5
sg26
I759557
sg27
g28
ssS'KOENIG MARK E'
p394
(dp395
g3
I2374
sg4
g5
sg6
I127017
sg7
I01
sg8
g5
sg9
S'mark.koenig@enron.com'
p396
sg11
I300000
sg12
g5
sg13
I2271
sg14
g5
sg15
I61
sg16
I150458
sg17
g5
sg18
I700000
sg19
I1920055
sg20
I53
sg21
F0.02792607802874743
sg22
I15
sg23
I1248318
sg24
I309946
sg25
I1587421
sg26
I671737
sg27
I3601738
ssS'SAVAGE FRANK'
p397
(dp398
g3
g5
sg4
g5
sg6
g5
sg7
I00
sg8
I-121284
sg9
g5
sg11
g5
sg12
g5
sg13
g5
sg14
g5
sg15
g5
sg16
g5
sg17
I125034
sg18
g5
sg19
g5
sg20
g5
sg21
g28
sg22
g5
sg23
g5
sg24
g5
sg25
I3750
sg26
g5
sg27
g28
ssS'IZZO LAWRENCE L'
p399
(dp400
g3
I496
sg4
g5
sg6
I28093
sg7
I00
sg8
g5
sg9
S'larry.izzo@enron.com'
p401
sg11
I312500
sg12
g5
sg13
I437
sg14
g5
sg15
I19
sg16
I1553729
sg17
g5
sg18
g5
sg19
I5819980
sg20
I28
sg21
F0.06407766990291262
sg22
I5
sg23
I3654808
sg24
I85274
sg25
I1979596
sg26
I2165172
sg27
g28
ssS'TILNEY ELIZABETH A'
p402
(dp403
g3
I460
sg4
g5
sg6
g5
sg7
I00
sg8
I-575000
sg9
S'elizabeth.tilney@enron.com'
p404
sg11
I275000
sg12
g5
sg13
I379
sg14
g5
sg15
I19
sg16
I152055
sg17
g5
sg18
I300000
sg19
I1168042
sg20
I10
sg21
F0.04384133611691023
sg22
I11
sg23
I576792
sg24
I247338
sg25
I399393
sg26
I591250
sg27
I2306630
ssS'MARTIN AMANDA K'
p405
(dp406
g3
I1522
sg4
I85430
sg6
I8211
sg7
I00
sg8
g5
sg9
S'a..martin@enron.com'
p407
sg11
I5145434
sg12
g5
sg13
I477
sg14
g5
sg15
I230
sg16
I2818454
sg17
g5
sg18
g5
sg19
I2070306
sg20
I8
sg21
F0.0045662100456621
sg22
I0
sg23
g5
sg24
I349487
sg25
I8407016
sg26
I2070306
sg27
g28
ssS'BUY RICHARD B'
p408
(dp409
g3
I3523
sg4
I649584
sg6
g5
sg7
I00
sg8
I-694862
sg9
S'rick.buy@enron.com'
p410
sg11
I769862
sg12
g5
sg13
I2333
sg14
g5
sg15
I1053
sg16
I400572
sg17
g5
sg18
I900000
sg19
I3444470
sg20
I156
sg21
F0.04960664335664336
sg22
I71
sg23
I901657
sg24
I330546
sg25
I2355702
sg26
I2542813
sg27
I7217829
ssS'GRAMM WENDY L'
p411
(dp412
g3
g5
sg4
g5
sg6
g5
sg7
I00
sg8
g5
sg9
g5
sg11
g5
sg12
g5
sg13
g5
sg14
g5
sg15
g5
sg16
g5
sg17
I119292
sg18
g5
sg19
g5
sg20
g5
sg21
g28
sg22
g5
sg23
g5
sg24
g5
sg25
I119292
sg26
g5
sg27
g28
ssS'CAUSEY RICHARD A'
p413
(dp414
g3
I1892
sg4
g5
sg6
I30674
sg7
I01
sg8
I-235000
sg9
S'richard.causey@enron.com'
p415
sg11
I350000
sg12
g5
sg13
I1585
sg14
g5
sg15
I49
sg16
I307895
sg17
g5
sg18
I1000000
sg19
I2502063
sg20
I58
sg21
F0.03606388459556929
sg22
I12
sg23
I2502063
sg24
I415189
sg25
I1868758
sg26
g5
sg27
g28
ssS'TAYLOR MITCHELL S'
p416
(dp417
g3
I533
sg4
I227449
sg6
g5
sg7
I00
sg8
g5
sg9
S'mitchell.taylor@enron.com'
p418
sg11
g5
sg12
g5
sg13
I300
sg14
g5
sg15
I29
sg16
g5
sg17
g5
sg18
I600000
sg19
I3745048
sg20
I0
sg21
F0.0
sg22
I0
sg23
I563798
sg24
I265214
sg25
I1092663
sg26
I3181250
sg27
I7791512
ssS'DONAHUE JR JEFFREY M'
p419
(dp420
g3
I865
sg4
g5
sg6
I96268
sg7
I00
sg8
I-300000
sg9
S'jeff.donahue@enron.com'
p421
sg11
g5
sg12
g5
sg13
I772
sg14
g5
sg15
I22
sg16
I891
sg17
g5
sg18
I800000
sg19
I1080988
sg20
I188
sg21
F0.22435174746335965
sg22
I11
sg23
I315068
sg24
I278601
sg25
I875760
sg26
I765920
sg27
I2925509
ssS'GLISAN JR BEN F'
p422
(dp423
g3
I873
sg4
g5
sg6
I125978
sg7
I01
sg8
g5
sg9
S'ben.glisan@enron.com'
p424
sg11
I71023
sg12
g5
sg13
I874
sg14
g5
sg15
I16
sg16
I200308
sg17
g5
sg18
I600000
sg19
I778546
sg20
I52
sg21
F0.06524184476940383
sg22
I6
sg23
I393818
sg24
I274975
sg25
I1272284
sg26
I384728
sg27
I2038249
ss.